target datalayout = "e-m:e-p270:32:32-p271:32:32-p272:64:64-i64:64-i128:128-f80:128-n8:16:32:64-S128"
target triple = "x86_64-pc-linux-gnu"

%struct.lua_State = type { %struct.GCRef, i8, i8, i8, i8, %struct.MRef, %struct.GCRef, ptr, ptr, %struct.MRef, %struct.MRef, %struct.GCRef, %struct.GCRef, ptr, i32 }
%struct.MRef = type { i64 }
%struct.GCRef = type { i64 }
%union.TValue = type { i64 }

; Function Attrs: nounwind uwtable
define internal i32 @lj_ffh_math_log(ptr noundef %0) #0 {
  %2 = alloca i32, align 4
  %3 = alloca ptr, align 8
  %4 = alloca double, align 8
  %5 = alloca double, align 8
  %6 = alloca i32, align 4
  store ptr %0, ptr %3, align 8, !tbaa !4
  call void @llvm.lifetime.start.p0(i64 8, ptr %4) #7
  %7 = load ptr, ptr %3, align 8, !tbaa !4
  %8 = call double @lj_lib_checknum(ptr noundef %7, i32 noundef 1)
  store double %8, ptr %4, align 8, !tbaa !13
  %9 = load ptr, ptr %3, align 8, !tbaa !4
  %10 = getelementptr inbounds nuw %struct.lua_State, ptr %9, i32 0, i32 7
  %11 = load ptr, ptr %10, align 8, !tbaa !15
  %12 = getelementptr inbounds %union.TValue, ptr %11, i64 1
  %13 = load ptr, ptr %3, align 8, !tbaa !4
  %14 = getelementptr inbounds nuw %struct.lua_State, ptr %13, i32 0, i32 8
  %15 = load ptr, ptr %14, align 8, !tbaa !21
  %16 = icmp ult ptr %12, %15
  br i1 %16, label %17, label %33

17:                                               ; preds = %1
  call void @llvm.lifetime.start.p0(i64 8, ptr %5) #7
  %18 = load ptr, ptr %3, align 8, !tbaa !4
  %19 = call double @lj_lib_checknum(ptr noundef %18, i32 noundef 2)
  store double %19, ptr %5, align 8, !tbaa !13
  %20 = load double, ptr %4, align 8, !tbaa !13
  %21 = call double @log2(double noundef %20) #7, !tbaa !22
  store double %21, ptr %4, align 8, !tbaa !13
  %22 = load double, ptr %5, align 8, !tbaa !13
  %23 = call double @log2(double noundef %22) #7, !tbaa !22
  %24 = fdiv double 1.000000e+00, %23
  store double %24, ptr %5, align 8, !tbaa !13
  %25 = load double, ptr %4, align 8, !tbaa !13
  %26 = load double, ptr %5, align 8, !tbaa !13
  %27 = fmul double %25, %26
  %28 = load ptr, ptr %3, align 8, !tbaa !4
  %29 = getelementptr inbounds nuw %struct.lua_State, ptr %28, i32 0, i32 7
  %30 = load ptr, ptr %29, align 8, !tbaa !15
  %31 = getelementptr inbounds %union.TValue, ptr %30, i64 -1
  %32 = getelementptr inbounds %union.TValue, ptr %31, i64 -1
  store double %27, ptr %32, align 8, !tbaa !23
  store i32 2, ptr %2, align 4
  store i32 1, ptr %6, align 4
  call void @llvm.lifetime.end.p0(i64 8, ptr %5) #7
  br label %34

33:                                               ; preds = %1
  store i32 0, ptr %2, align 4
  store i32 1, ptr %6, align 4
  br label %34

34:                                               ; preds = %33, %17
  call void @llvm.lifetime.end.p0(i64 8, ptr %4) #7
  %35 = load i32, ptr %2, align 4
  ret i32 %35
}