; Function Attrs: nounwind uwtable
define internal range(i32 0, 3) i32 @lj_ffh_math_log(ptr noundef %0) #0 {
  %2 = tail call double @lj_lib_checknum(ptr noundef %0, i32 noundef 1) #5
  %3 = getelementptr inbounds nuw i8, ptr %0, i64 32
  %4 = load ptr, ptr %3, align 8, !tbaa !8
  %5 = getelementptr inbounds nuw i8, ptr %4, i64 8
  %6 = getelementptr inbounds nuw i8, ptr %0, i64 40
  %7 = load ptr, ptr %6, align 8, !tbaa !15
  %8 = icmp ult ptr %5, %7
  br i1 %8, label %9, label %17

9:                                                ; preds = %1
  %10 = tail call double @lj_lib_checknum(ptr noundef nonnull %0, i32 noundef 2) #5
  %11 = tail call double @log2(double noundef %2) #5, !tbaa !16
  %12 = tail call double @log2(double noundef %10) #5, !tbaa !16
  %13 = fdiv double 1.000000e+00, %12
  %14 = fmul double %11, %13
  %15 = load ptr, ptr %3, align 8, !tbaa !8
  %16 = getelementptr inbounds i8, ptr %15, i64 -16
  store double %14, ptr %16, align 8, !tbaa !17
  br label %17

17:                                               ; preds = %1, %9
  %.0 = phi i32 [ 2, %9 ], [ 0, %1 ]
  ret i32 %.0
}